; ModuleID = '31/1581.c'
source_filename = "31/1581.c"
target datalayout = "e-m:e-p270:32:32-p271:32:32-p272:64:64-i64:64-f80:128-n8:16:32:64-S128"
target triple = "x86_64-pc-linux-gnu"

%struct.student = type { [100 x i8], %struct.student* }

@__const.creat.l = private unnamed_addr constant [4 x i8] c"end\00", align 1
@.str = private unnamed_addr constant [4 x i8] c"%s\0A\00", align 1

; Function Attrs: noinline nounwind uwtable
define dso_local %struct.student* @creat() #0 {
  %1 = alloca %struct.student*, align 8
  %2 = alloca %struct.student*, align 8
  %3 = alloca %struct.student*, align 8
  %4 = alloca i32, align 4
  %5 = alloca [4 x i8], align 1
  %6 = bitcast [4 x i8]* %5 to i8*
  call void @llvm.memcpy.p0i8.p0i8.i64(i8* align 1 %6, i8* align 1 getelementptr inbounds ([4 x i8], [4 x i8]* @__const.creat.l, i32 0, i32 0), i64 4, i1 false)
  store i32 0, i32* %4, align 4
  %7 = call noalias i8* @malloc(i64 100) #5
  %8 = bitcast i8* %7 to %struct.student*
  store %struct.student* %8, %struct.student** %3, align 8
  store %struct.student* %8, %struct.student** %2, align 8
  %9 = load %struct.student*, %struct.student** %2, align 8
  %10 = getelementptr inbounds %struct.student, %struct.student* %9, i32 0, i32 0
  %11 = getelementptr inbounds [100 x i8], [100 x i8]* %10, i64 0, i64 0
  %12 = call i32 (i8*, ...) bitcast (i32 (...)* @gets to i32 (i8*, ...)*)(i8* %11)
  store %struct.student* null, %struct.student** %1, align 8
  br label %13

13:                                               ; preds = %31, %0
  %14 = load %struct.student*, %struct.student** %2, align 8
  %15 = getelementptr inbounds %struct.student, %struct.student* %14, i32 0, i32 0
  %16 = getelementptr inbounds [100 x i8], [100 x i8]* %15, i64 0, i64 0
  %17 = getelementptr inbounds [4 x i8], [4 x i8]* %5, i64 0, i64 0
  %18 = call i32 @strcmp(i8* %16, i8* %17) #6
  %19 = icmp ne i32 %18, 0
  br i1 %19, label %20, label %39

20:                                               ; preds = %13
  %21 = load i32, i32* %4, align 4
  %22 = add nsw i32 %21, 1
  store i32 %22, i32* %4, align 4
  %23 = load i32, i32* %4, align 4
  %24 = icmp eq i32 %23, 1
  br i1 %24, label %25, label %27

25:                                               ; preds = %20
  %26 = load %struct.student*, %struct.student** %2, align 8
  store %struct.student* %26, %struct.student** %1, align 8
  br label %31

27:                                               ; preds = %20
  %28 = load %struct.student*, %struct.student** %2, align 8
  %29 = load %struct.student*, %struct.student** %3, align 8
  %30 = getelementptr inbounds %struct.student, %struct.student* %29, i32 0, i32 1
  store %struct.student* %28, %struct.student** %30, align 8
  br label %31

31:                                               ; preds = %27, %25
  %32 = load %struct.student*, %struct.student** %2, align 8
  store %struct.student* %32, %struct.student** %3, align 8
  %33 = call noalias i8* @malloc(i64 100) #5
  %34 = bitcast i8* %33 to %struct.student*
  store %struct.student* %34, %struct.student** %2, align 8
  %35 = load %struct.student*, %struct.student** %2, align 8
  %36 = getelementptr inbounds %struct.student, %struct.student* %35, i32 0, i32 0
  %37 = getelementptr inbounds [100 x i8], [100 x i8]* %36, i64 0, i64 0
  %38 = call i32 (i8*, ...) bitcast (i32 (...)* @gets to i32 (i8*, ...)*)(i8* %37)
  br label %13

39:                                               ; preds = %13
  %40 = load %struct.student*, %struct.student** %3, align 8
  %41 = getelementptr inbounds %struct.student, %struct.student* %40, i32 0, i32 1
  store %struct.student* null, %struct.student** %41, align 8
  %42 = load %struct.student*, %struct.student** %1, align 8
  ret %struct.student* %42
}

; Function Attrs: argmemonly nounwind willreturn
declare void @llvm.memcpy.p0i8.p0i8.i64(i8* noalias nocapture writeonly, i8* noalias nocapture readonly, i64, i1 immarg) #1

; Function Attrs: nounwind
declare dso_local noalias i8* @malloc(i64) #2

declare dso_local i32 @gets(...) #3

; Function Attrs: nounwind readonly
declare dso_local i32 @strcmp(i8*, i8*) #4

; Function Attrs: noinline nounwind uwtable
define dso_local void @print(%struct.student* %0) #0 {
  %2 = alloca %struct.student*, align 8
  %3 = alloca %struct.student*, align 8
  %4 = alloca %struct.student*, align 8
  %5 = alloca %struct.student*, align 8
  store %struct.student* %0, %struct.student** %2, align 8
  %6 = load %struct.student*, %struct.student** %2, align 8
  store %struct.student* %6, %struct.student** %5, align 8
  store %struct.student* %6, %struct.student** %4, align 8
  store %struct.student* %6, %struct.student** %3, align 8
  %7 = load %struct.student*, %struct.student** %3, align 8
  %8 = getelementptr inbounds %struct.student, %struct.student* %7, i32 0, i32 1
  %9 = load %struct.student*, %struct.student** %8, align 8
  store %struct.student* %9, %struct.student** %5, align 8
  %10 = load %struct.student*, %struct.student** %5, align 8
  %11 = getelementptr inbounds %struct.student, %struct.student* %10, i32 0, i32 1
  %12 = load %struct.student*, %struct.student** %11, align 8
  store %struct.student* %12, %struct.student** %4, align 8
  %13 = load %struct.student*, %struct.student** %2, align 8
  %14 = getelementptr inbounds %struct.student, %struct.student* %13, i32 0, i32 1
  store %struct.student* null, %struct.student** %14, align 8
  br label %15

15:                                               ; preds = %20, %1
  %16 = load %struct.student*, %struct.student** %4, align 8
  %17 = getelementptr inbounds %struct.student, %struct.student* %16, i32 0, i32 1
  %18 = load %struct.student*, %struct.student** %17, align 8
  %19 = icmp ne %struct.student* %18, null
  br i1 %19, label %20, label %29

20:                                               ; preds = %15
  %21 = load %struct.student*, %struct.student** %3, align 8
  %22 = load %struct.student*, %struct.student** %5, align 8
  %23 = getelementptr inbounds %struct.student, %struct.student* %22, i32 0, i32 1
  store %struct.student* %21, %struct.student** %23, align 8
  %24 = load %struct.student*, %struct.student** %5, align 8
  store %struct.student* %24, %struct.student** %3, align 8
  %25 = load %struct.student*, %struct.student** %4, align 8
  store %struct.student* %25, %struct.student** %5, align 8
  %26 = load %struct.student*, %struct.student** %4, align 8
  %27 = getelementptr inbounds %struct.student, %struct.student* %26, i32 0, i32 1
  %28 = load %struct.student*, %struct.student** %27, align 8
  store %struct.student* %28, %struct.student** %4, align 8
  br label %15

29:                                               ; preds = %15
  %30 = load %struct.student*, %struct.student** %3, align 8
  %31 = load %struct.student*, %struct.student** %5, align 8
  %32 = getelementptr inbounds %struct.student, %struct.student* %31, i32 0, i32 1
  store %struct.student* %30, %struct.student** %32, align 8
  %33 = load %struct.student*, %struct.student** %5, align 8
  %34 = load %struct.student*, %struct.student** %4, align 8
  %35 = getelementptr inbounds %struct.student, %struct.student* %34, i32 0, i32 1
  store %struct.student* %33, %struct.student** %35, align 8
  %36 = load %struct.student*, %struct.student** %4, align 8
  store %struct.student* %36, %struct.student** %2, align 8
  %37 = load %struct.student*, %struct.student** %2, align 8
  store %struct.student* %37, %struct.student** %3, align 8
  br label %38

38:                                               ; preds = %41, %29
  %39 = load %struct.student*, %struct.student** %3, align 8
  %40 = icmp ne %struct.student* %39, null
  br i1 %40, label %41, label %49

41:                                               ; preds = %38
  %42 = load %struct.student*, %struct.student** %3, align 8
  %43 = getelementptr inbounds %struct.student, %struct.student* %42, i32 0, i32 0
  %44 = getelementptr inbounds [100 x i8], [100 x i8]* %43, i64 0, i64 0
  %45 = call i32 (i8*, ...) @printf(i8* getelementptr inbounds ([4 x i8], [4 x i8]* @.str, i64 0, i64 0), i8* %44)
  %46 = load %struct.student*, %struct.student** %3, align 8
  %47 = getelementptr inbounds %struct.student, %struct.student* %46, i32 0, i32 1
  %48 = load %struct.student*, %struct.student** %47, align 8
  store %struct.student* %48, %struct.student** %3, align 8
  br label %38

49:                                               ; preds = %38
  ret void
}

declare dso_local i32 @printf(i8*, ...) #3

; Function Attrs: noinline nounwind uwtable
define dso_local void @main() #0 {
  %1 = alloca %struct.student*, align 8
  %2 = call %struct.student* @creat()
  store %struct.student* %2, %struct.student** %1, align 8
  %3 = load %struct.student*, %struct.student** %1, align 8
  call void @print(%struct.student* %3)
  ret void
}


!llvm.module.flags = !{!0}
!llvm.ident = !{!1}

!0 = !{i32 1, !"wchar_size", i32 4}
!1 = !{!"clang version 10.0.0-4ubuntu1 "}
