; ModuleID = 'source-C-CXX/30/1581.c'
source_filename = "source-C-CXX/30/1581.c"
target datalayout = "e-m:e-p270:32:32-p271:32:32-p272:64:64-i64:64-f80:128-n8:16:32:64-S128"
target triple = "x86_64-pc-linux-gnu"

%struct.student = type { [100 x i8], %struct.student* }

@__const.creat.l = private unnamed_addr constant [4 x i8] c"end\00", align 1

; Function Attrs: nounwind sspstrong uwtable
define dso_local %struct.student* @creat() local_unnamed_addr #0 {
  %1 = tail call noalias align 16 dereferenceable_or_null(100) i8* @malloc(i64 100) #6
  %2 = bitcast i8* %1 to %struct.student*
  %3 = getelementptr inbounds %struct.student, %struct.student* %2, i64 0, i32 0, i64 0
  %4 = tail call i32 (i8*, ...) bitcast (i32 (...)* @gets to i32 (i8*, ...)*)(i8* %3) #6
  %5 = tail call i32 @strcmp(i8* noundef nonnull dereferenceable(1) %3, i8* noundef nonnull dereferenceable(4) getelementptr inbounds ([4 x i8], [4 x i8]* @__const.creat.l, i64 0, i64 0)) #7
  %6 = icmp eq i32 %5, 0
  br i1 %6, label %24, label %7

7:                                                ; preds = %0
  %8 = tail call noalias align 16 dereferenceable_or_null(100) i8* @malloc(i64 100) #6
  %9 = bitcast i8* %8 to %struct.student*
  %10 = getelementptr inbounds %struct.student, %struct.student* %9, i64 0, i32 0, i64 0
  %11 = tail call i32 (i8*, ...) bitcast (i32 (...)* @gets to i32 (i8*, ...)*)(i8* %10) #6
  %12 = tail call i32 @strcmp(i8* noundef nonnull dereferenceable(1) %10, i8* noundef nonnull dereferenceable(4) getelementptr inbounds ([4 x i8], [4 x i8]* @__const.creat.l, i64 0, i64 0)) #7
  %13 = icmp eq i32 %12, 0
  br i1 %13, label %24, label %14

14:                                               ; preds = %7, %14
  %15 = phi %struct.student* [ %16, %14 ], [ %2, %7 ]
  %16 = phi %struct.student* [ %19, %14 ], [ %9, %7 ]
  %17 = getelementptr inbounds %struct.student, %struct.student* %15, i64 0, i32 1
  store %struct.student* %16, %struct.student** %17, align 8, !tbaa !5
  %18 = tail call noalias align 16 dereferenceable_or_null(100) i8* @malloc(i64 100) #6
  %19 = bitcast i8* %18 to %struct.student*
  %20 = getelementptr inbounds %struct.student, %struct.student* %19, i64 0, i32 0, i64 0
  %21 = tail call i32 (i8*, ...) bitcast (i32 (...)* @gets to i32 (i8*, ...)*)(i8* %20) #6
  %22 = tail call i32 @strcmp(i8* noundef nonnull dereferenceable(1) %20, i8* noundef nonnull dereferenceable(4) getelementptr inbounds ([4 x i8], [4 x i8]* @__const.creat.l, i64 0, i64 0)) #7
  %23 = icmp eq i32 %22, 0
  br i1 %23, label %24, label %14, !llvm.loop !10

24:                                               ; preds = %14, %7, %0
  %25 = phi %struct.student* [ null, %0 ], [ %2, %7 ], [ %2, %14 ]
  %26 = phi %struct.student* [ %2, %0 ], [ %2, %7 ], [ %16, %14 ]
  %27 = getelementptr inbounds %struct.student, %struct.student* %26, i64 0, i32 1
  store %struct.student* null, %struct.student** %27, align 8, !tbaa !5
  ret %struct.student* %25
}

; Function Attrs: inaccessiblememonly mustprogress nofree nounwind willreturn
declare noalias noundef align 16 i8* @malloc(i64 noundef) local_unnamed_addr #1

declare i32 @gets(...) local_unnamed_addr #2

; Function Attrs: argmemonly mustprogress nofree nounwind readonly willreturn
declare i32 @strcmp(i8* nocapture, i8* nocapture) local_unnamed_addr #3

; Function Attrs: nofree nounwind sspstrong uwtable
define dso_local void @print(%struct.student* %0) local_unnamed_addr #4 {
  %2 = getelementptr inbounds %struct.student, %struct.student* %0, i64 0, i32 1
  %3 = load %struct.student*, %struct.student** %2, align 8, !tbaa !5
  %4 = getelementptr inbounds %struct.student, %struct.student* %3, i64 0, i32 1
  %5 = load %struct.student*, %struct.student** %4, align 8, !tbaa !5
  store %struct.student* null, %struct.student** %2, align 8, !tbaa !5
  %6 = getelementptr inbounds %struct.student, %struct.student* %5, i64 0, i32 1
  %7 = load %struct.student*, %struct.student** %6, align 8, !tbaa !5
  %8 = icmp eq %struct.student* %7, null
  br i1 %8, label %19, label %9

9:                                                ; preds = %1, %9
  %10 = phi %struct.student** [ %16, %9 ], [ %6, %1 ]
  %11 = phi %struct.student* [ %12, %9 ], [ %3, %1 ]
  %12 = phi %struct.student* [ %15, %9 ], [ %5, %1 ]
  %13 = phi %struct.student* [ %11, %9 ], [ %0, %1 ]
  %14 = getelementptr inbounds %struct.student, %struct.student* %11, i64 0, i32 1
  store %struct.student* %13, %struct.student** %14, align 8, !tbaa !5
  %15 = load %struct.student*, %struct.student** %10, align 8, !tbaa !5
  %16 = getelementptr inbounds %struct.student, %struct.student* %15, i64 0, i32 1
  %17 = load %struct.student*, %struct.student** %16, align 8, !tbaa !5
  %18 = icmp eq %struct.student* %17, null
  br i1 %18, label %19, label %9, !llvm.loop !13

19:                                               ; preds = %9, %1
  %20 = phi %struct.student* [ %0, %1 ], [ %11, %9 ]
  %21 = phi %struct.student* [ %5, %1 ], [ %15, %9 ]
  %22 = phi %struct.student* [ %3, %1 ], [ %12, %9 ]
  %23 = phi %struct.student** [ %6, %1 ], [ %16, %9 ]
  %24 = getelementptr inbounds %struct.student, %struct.student* %22, i64 0, i32 1
  store %struct.student* %20, %struct.student** %24, align 8, !tbaa !5
  store %struct.student* %22, %struct.student** %23, align 8, !tbaa !5
  br label %25

25:                                               ; preds = %19, %25
  %26 = phi %struct.student* [ %30, %25 ], [ %21, %19 ]
  %27 = getelementptr inbounds %struct.student, %struct.student* %26, i64 0, i32 0, i64 0
  %28 = tail call i32 @puts(i8* nonnull %27)
  %29 = getelementptr inbounds %struct.student, %struct.student* %26, i64 0, i32 1
  %30 = load %struct.student*, %struct.student** %29, align 8, !tbaa !5
  %31 = icmp eq %struct.student* %30, null
  br i1 %31, label %32, label %25, !llvm.loop !14

32:                                               ; preds = %25
  ret void
}

; Function Attrs: nounwind sspstrong uwtable
define dso_local void @main() local_unnamed_addr #0 {
  %1 = tail call %struct.student* @creat()
  %2 = getelementptr inbounds %struct.student, %struct.student* %1, i64 0, i32 1
  %3 = load %struct.student*, %struct.student** %2, align 8, !tbaa !5
  %4 = getelementptr inbounds %struct.student, %struct.student* %3, i64 0, i32 1
  %5 = load %struct.student*, %struct.student** %4, align 8, !tbaa !5
  store %struct.student* null, %struct.student** %2, align 8, !tbaa !5
  %6 = getelementptr inbounds %struct.student, %struct.student* %5, i64 0, i32 1
  %7 = load %struct.student*, %struct.student** %6, align 8, !tbaa !5
  %8 = icmp eq %struct.student* %7, null
  br i1 %8, label %19, label %9

9:                                                ; preds = %0, %9
  %10 = phi %struct.student** [ %16, %9 ], [ %6, %0 ]
  %11 = phi %struct.student* [ %12, %9 ], [ %3, %0 ]
  %12 = phi %struct.student* [ %15, %9 ], [ %5, %0 ]
  %13 = phi %struct.student* [ %11, %9 ], [ %1, %0 ]
  %14 = getelementptr inbounds %struct.student, %struct.student* %11, i64 0, i32 1
  store %struct.student* %13, %struct.student** %14, align 8, !tbaa !5
  %15 = load %struct.student*, %struct.student** %10, align 8, !tbaa !5
  %16 = getelementptr inbounds %struct.student, %struct.student* %15, i64 0, i32 1
  %17 = load %struct.student*, %struct.student** %16, align 8, !tbaa !5
  %18 = icmp eq %struct.student* %17, null
  br i1 %18, label %19, label %9, !llvm.loop !13

19:                                               ; preds = %9, %0
  %20 = phi %struct.student* [ %1, %0 ], [ %11, %9 ]
  %21 = phi %struct.student* [ %5, %0 ], [ %15, %9 ]
  %22 = phi %struct.student* [ %3, %0 ], [ %12, %9 ]
  %23 = phi %struct.student** [ %6, %0 ], [ %16, %9 ]
  %24 = getelementptr inbounds %struct.student, %struct.student* %22, i64 0, i32 1
  store %struct.student* %20, %struct.student** %24, align 8, !tbaa !5
  store %struct.student* %22, %struct.student** %23, align 8, !tbaa !5
  br label %25

25:                                               ; preds = %25, %19
  %26 = phi %struct.student* [ %30, %25 ], [ %21, %19 ]
  %27 = getelementptr inbounds %struct.student, %struct.student* %26, i64 0, i32 0, i64 0
  %28 = tail call i32 @puts(i8* nonnull %27) #6
  %29 = getelementptr inbounds %struct.student, %struct.student* %26, i64 0, i32 1
  %30 = load %struct.student*, %struct.student** %29, align 8, !tbaa !5
  %31 = icmp eq %struct.student* %30, null
  br i1 %31, label %32, label %25, !llvm.loop !14

32:                                               ; preds = %25
  ret void
}

; Function Attrs: nofree nounwind
declare noundef i32 @puts(i8* nocapture noundef readonly) local_unnamed_addr #5


!llvm.module.flags = !{!0, !1, !2, !3}
!llvm.ident = !{!4}

!0 = !{i32 1, !"wchar_size", i32 4}
!1 = !{i32 7, !"PIC Level", i32 2}
!2 = !{i32 7, !"PIE Level", i32 2}
!3 = !{i32 7, !"uwtable", i32 1}
!4 = !{!"clang version 13.0.0"}
!5 = !{!6, !9, i64 104}
!6 = !{!"student", !7, i64 0, !9, i64 104}
!7 = !{!"omnipotent char", !8, i64 0}
!8 = !{!"Simple C/C++ TBAA"}
!9 = !{!"any pointer", !7, i64 0}
!10 = distinct !{!10, !11, !12}
!11 = !{!"llvm.loop.mustprogress"}
!12 = !{!"llvm.loop.peeled.count", i32 1}
!13 = distinct !{!13, !11}
!14 = distinct !{!14, !11}
